; Function Attrs: mustprogress uwtable
define hidden void @_ZN3euf6egraph9add_th_eqEiiiPNS_5enodeES2_(ptr noundef nonnull align 8 dereferenceable(536) %0, i32 noundef %1, i32 noundef %2, i32 noundef %3, ptr noundef %4, ptr noundef %5) local_unnamed_addr #3 align 2 {
  %.sroa.4 = alloca [24 x i8], align 4
  %7 = getelementptr inbounds nuw i8, ptr %0, i64 288
  %8 = load ptr, ptr %7, align 8, !tbaa !163
  %9 = icmp eq ptr %8, null
  br i1 %9, label %16, label %10

10:                                               ; preds = %6
  %11 = getelementptr inbounds i8, ptr %8, i64 -4
  %12 = load i32, ptr %11, align 4, !tbaa !113
  %13 = getelementptr inbounds i8, ptr %8, i64 -8
  %14 = load i32, ptr %13, align 4, !tbaa !113
  %15 = icmp eq i32 %12, %14
  br i1 %15, label %16, label %_ZN6vectorIN3euf5th_eqELb0EjE9push_backEOS1_.exit

16:                                               ; preds = %10, %6
  tail call void @_ZN6vectorIN3euf5th_eqELb0EjE13expand_vectorEv(ptr noundef nonnull align 8 dereferenceable(8) %7)
  %.pre.i = load ptr, ptr %7, align 8, !tbaa !163
  %.phi.trans.insert.i = getelementptr inbounds i8, ptr %.pre.i, i64 -4
  %.pre2.i = load i32, ptr %.phi.trans.insert.i, align 4, !tbaa !113
  br label %_ZN6vectorIN3euf5th_eqELb0EjE9push_backEOS1_.exit

_ZN6vectorIN3euf5th_eqELb0EjE9push_backEOS1_.exit: ; preds = %10, %16
  %17 = phi i32 [ %.pre2.i, %16 ], [ %12, %10 ]
  %18 = phi ptr [ %.pre.i, %16 ], [ %8, %10 ]
  %19 = zext i32 %17 to i64
  %20 = getelementptr inbounds nuw %"class.euf::th_eq", ptr %18, i64 %19
  store i32 %1, ptr %20, align 8, !tbaa !113
  %.sroa.414.0..sroa_idx = getelementptr inbounds nuw i8, ptr %20, i64 4
  store i32 %2, ptr %.sroa.414.0..sroa_idx, align 4, !tbaa !113
  %.sroa.515.0..sroa_idx = getelementptr inbounds nuw i8, ptr %20, i64 8
  store i32 %3, ptr %.sroa.515.0..sroa_idx, align 8, !tbaa !113
  %.sroa.616.0..sroa_idx = getelementptr inbounds nuw i8, ptr %20, i64 16
  store ptr %4, ptr %.sroa.616.0..sroa_idx, align 8, !tbaa !28
  %.sroa.7.0..sroa_idx = getelementptr inbounds nuw i8, ptr %20, i64 24
  store ptr %5, ptr %.sroa.7.0..sroa_idx, align 8, !tbaa !47
  %21 = load ptr, ptr %7, align 8, !tbaa !163
  %22 = getelementptr inbounds i8, ptr %21, i64 -4
  %23 = load i32, ptr %22, align 4, !tbaa !113
  %24 = add i32 %23, 1
  store i32 %24, ptr %22, align 4, !tbaa !113
  %25 = getelementptr inbounds nuw i8, ptr %0, i64 112
  call void @llvm.lifetime.start.p0(i64 24, ptr nonnull %.sroa.4)
  %.sroa.4.4..sroa_idx = getelementptr inbounds nuw i8, ptr %.sroa.4, i64 4
  call void @llvm.memset.p0.i64(ptr noundef nonnull align 4 dereferenceable(20) %.sroa.4.4..sroa_idx, i8 0, i64 20, i1 false)
  %26 = load ptr, ptr %25, align 8, !tbaa !121
  %27 = icmp eq ptr %26, null
  br i1 %27, label %34, label %28

28:                                               ; preds = %_ZN6vectorIN3euf5th_eqELb0EjE9push_backEOS1_.exit
  %29 = getelementptr inbounds i8, ptr %26, i64 -4
  %30 = load i32, ptr %29, align 4, !tbaa !113
  %31 = getelementptr inbounds i8, ptr %26, i64 -8
  %32 = load i32, ptr %31, align 4, !tbaa !113
  %33 = icmp eq i32 %30, %32
  br i1 %33, label %34, label %_ZN6vectorIN3euf6egraph13update_recordELb0EjE9push_backEOS2_.exit

34:                                               ; preds = %28, %_ZN6vectorIN3euf5th_eqELb0EjE9push_backEOS1_.exit
  tail call void @_ZN6vectorIN3euf6egraph13update_recordELb0EjE13expand_vectorEv(ptr noundef nonnull align 8 dereferenceable(8) %25)
  %.pre.i10 = load ptr, ptr %25, align 8, !tbaa !121
  %.phi.trans.insert.i11 = getelementptr inbounds i8, ptr %.pre.i10, i64 -4
  %.pre2.i12 = load i32, ptr %.phi.trans.insert.i11, align 4, !tbaa !113
  br label %_ZN6vectorIN3euf6egraph13update_recordELb0EjE9push_backEOS2_.exit

_ZN6vectorIN3euf6egraph13update_recordELb0EjE9push_backEOS2_.exit: ; preds = %28, %34
  %35 = phi i32 [ %.pre2.i12, %34 ], [ %30, %28 ]
  %36 = phi ptr [ %.pre.i10, %34 ], [ %26, %28 ]
  %37 = zext i32 %35 to i64
  %38 = getelementptr inbounds nuw %"struct.euf::egraph::update_record", ptr %36, i64 %37
  store i32 7, ptr %38, align 8, !tbaa !122
  %.sroa.4.0..sroa_idx = getelementptr inbounds nuw i8, ptr %38, i64 4
  call void @llvm.memcpy.p0.p0.i64(ptr noundef nonnull align 4 dereferenceable(24) %.sroa.4.0..sroa_idx, ptr noundef nonnull align 4 dereferenceable(24) %.sroa.4, i64 24, i1 false), !tbaa.struct !137
  %39 = load ptr, ptr %25, align 8, !tbaa !121
  %40 = getelementptr inbounds i8, ptr %39, i64 -4
  %41 = load i32, ptr %40, align 4, !tbaa !113
  %42 = add i32 %41, 1
  store i32 %42, ptr %40, align 4, !tbaa !113
  call void @llvm.lifetime.end.p0(i64 24, ptr nonnull %.sroa.4)
  %43 = getelementptr inbounds nuw i8, ptr %0, i64 316
  %44 = load i32, ptr %43, align 4, !tbaa !178
  %45 = add i32 %44, 1
  store i32 %45, ptr %43, align 4, !tbaa !178
  %46 = getelementptr inbounds nuw i8, ptr %0, i64 104
  %47 = load ptr, ptr %46, align 8, !tbaa !171
  %48 = icmp eq ptr %47, null
  br i1 %48, label %_ZNK3euf6egraph10get_pluginEi.exit.thread, label %_ZNK6vectorIPN3euf6pluginELb0EjE4sizeEv.exit.i.i

_ZNK6vectorIPN3euf6pluginELb0EjE4sizeEv.exit.i.i: ; preds = %_ZN6vectorIN3euf6egraph13update_recordELb0EjE9push_backEOS2_.exit
  %49 = getelementptr inbounds i8, ptr %47, i64 -4
  %50 = load i32, ptr %49, align 4, !tbaa !113
  %51 = icmp ult i32 %1, %50
  br i1 %51, label %_ZNK3euf6egraph10get_pluginEi.exit, label %_ZNK3euf6egraph10get_pluginEi.exit.thread

_ZNK3euf6egraph10get_pluginEi.exit:               ; preds = %_ZNK6vectorIPN3euf6pluginELb0EjE4sizeEv.exit.i.i
  %52 = zext i32 %1 to i64
  %53 = getelementptr inbounds nuw ptr, ptr %47, i64 %52
  %54 = load ptr, ptr %53, align 8, !tbaa !172
  %.not = icmp eq ptr %54, null
  br i1 %.not, label %_ZNK3euf6egraph10get_pluginEi.exit.thread, label %55

55:                                               ; preds = %_ZNK3euf6egraph10get_pluginEi.exit
  %56 = load ptr, ptr %54, align 8, !tbaa !174
  %57 = getelementptr inbounds nuw i8, ptr %56, i64 32
  %58 = load ptr, ptr %57, align 8
  tail call void %58(ptr noundef nonnull align 8 dereferenceable(16) %54, ptr noundef %4, ptr noundef %5)
  br label %_ZNK3euf6egraph10get_pluginEi.exit.thread

_ZNK3euf6egraph10get_pluginEi.exit.thread:        ; preds = %_ZN6vectorIN3euf6egraph13update_recordELb0EjE9push_backEOS2_.exit, %_ZNK6vectorIPN3euf6pluginELb0EjE4sizeEv.exit.i.i, %55, %_ZNK3euf6egraph10get_pluginEi.exit
  ret void
}